; Function Attrs: nofree nounwind uwtable
define void @Maj3_PrintClause(ptr noundef readonly captures(none) %0, i32 noundef %1) local_unnamed_addr #0 {
  %3 = icmp sgt i32 %1, 0
  br i1 %3, label %.lr.ph.preheader, label %._crit_edge

.lr.ph.preheader:                                 ; preds = %2
  %wide.trip.count = zext nneg i32 %1 to i64
  br label %.lr.ph

.lr.ph:                                           ; preds = %.lr.ph.preheader, %.lr.ph
  %indvars.iv = phi i64 [ 0, %.lr.ph.preheader ], [ %indvars.iv.next, %.lr.ph ]
  %4 = getelementptr inbounds nuw i32, ptr %0, i64 %indvars.iv
  %5 = load i32, ptr %4, align 4
  %6 = and i32 %5, 1
  %.not = icmp eq i32 %6, 0
  %7 = select i1 %.not, i32 43, i32 45
  %8 = ashr i32 %5, 1
  %9 = tail call i32 (ptr, ...) @printf(ptr noundef nonnull dereferenceable(1) @.str.10, i32 noundef %7, i32 noundef %8)
  %indvars.iv.next = add nuw nsw i64 %indvars.iv, 1
  %exitcond.not = icmp eq i64 %indvars.iv.next, %wide.trip.count
  br i1 %exitcond.not, label %._crit_edge, label %.lr.ph, !llvm.loop !23

._crit_edge:                                      ; preds = %.lr.ph, %2
  %putchar = tail call i32 @putchar(i32 10)
  ret void
}